target datalayout = "e-m:e-p270:32:32-p271:32:32-p272:64:64-i64:64-i128:128-f80:128-n8:16:32:64-S128"
target triple = "x86_64-pc-linux-gnu"

%struct.expert_field = type { i32, i32 }
%struct._packet_info = type { ptr, ptr, i32, i32, %struct.nstime_t, %struct.nstime_t, %struct.nstime_t, i32, ptr, ptr, ptr, ptr, %struct._address, %struct._address, %struct._address, %struct._address, %struct._address, %struct._address, i32, ptr, i32, %struct.anon, i32, i32, i32, i32, ptr, i32, ptr, ptr, i16, i16, i32, i32, i16, i32, i32, ptr, ptr, ptr, i8, i8, i16, i16, i16, i32, i16, i16, ptr, ptr, ptr, ptr, ptr, i32 }
%struct.nstime_t = type { i64, i32 }
%struct._address = type { i32, i32, ptr, ptr }
%struct.anon = type { i8, [3 x i8] }

@.str.123 = private unnamed_addr constant [7 x i8] c" -> %s\00", align 1
@.str.124 = private unnamed_addr constant [17 x i8] c"Unknown (0x%08x)\00", align 1
@hf_dcom_hresult = internal global i32 0, align 4
@ei_dcom_hresult_expert = internal global %struct.expert_field zeroinitializer, align 4
@.str.127 = private unnamed_addr constant [12 x i8] c"Hresult: %s\00", align 1
@.str.128 = private unnamed_addr constant [15 x i8] c"Unknown (0x%x)\00", align 1

; Function Attrs: nounwind uwtable
define i32 @dissect_dcom_HRESULT(ptr noundef %0, i32 noundef %1, ptr noundef %2, ptr noundef %3, ptr noundef %4, ptr noundef %5, ptr noundef %6) #0 {
  %8 = alloca ptr, align 8
  %9 = alloca i32, align 4
  %10 = alloca ptr, align 8
  %11 = alloca ptr, align 8
  %12 = alloca ptr, align 8
  %13 = alloca ptr, align 8
  %14 = alloca ptr, align 8
  %15 = alloca i32, align 4
  %16 = alloca ptr, align 8
  store ptr %0, ptr %8, align 8
  store i32 %1, ptr %9, align 4
  store ptr %2, ptr %10, align 8
  store ptr %3, ptr %11, align 8
  store ptr %4, ptr %12, align 8
  store ptr %5, ptr %13, align 8
  store ptr %6, ptr %14, align 8
  store ptr null, ptr %16, align 8
  %17 = load ptr, ptr %8, align 8
  %18 = load i32, ptr %9, align 4
  %19 = load ptr, ptr %10, align 8
  %20 = load ptr, ptr %12, align 8
  %21 = load ptr, ptr %13, align 8
  %22 = load i32, ptr @hf_dcom_hresult, align 4
  %23 = call i32 @dissect_ndr_uint32(ptr noundef %17, i32 noundef %18, ptr noundef %19, ptr noundef null, ptr noundef %20, ptr noundef %21, i32 noundef %22, ptr noundef %15)
  store i32 %23, ptr %9, align 4
  %24 = load ptr, ptr %11, align 8
  %25 = icmp ne ptr %24, null
  br i1 %25, label %26, label %40

26:                                               ; preds = %7
  %27 = load ptr, ptr %11, align 8
  %28 = load i32, ptr @hf_dcom_hresult, align 4
  %29 = load ptr, ptr %8, align 8
  %30 = load i32, ptr %9, align 4
  %31 = sub i32 %30, 4
  %32 = load ptr, ptr %13, align 8
  %33 = getelementptr i8, ptr %32, i64 0
  %34 = load i8, ptr %33, align 1
  %35 = zext i8 %34 to i32
  %36 = and i32 %35, 16
  %37 = icmp ne i32 %36, 0
  %38 = select i1 %37, i32 -2147483648, i32 0
  %39 = call ptr @proto_tree_add_item(ptr noundef %27, i32 noundef %28, ptr noundef %29, i32 noundef %31, i32 noundef 4, i32 noundef %38)
  store ptr %39, ptr %16, align 8
  br label %40

40:                                               ; preds = %26, %7
  %41 = load i32, ptr %15, align 4
  %42 = and i32 %41, -2147483648
  %43 = icmp ne i32 %42, 0
  br i1 %43, label %44, label %50

44:                                               ; preds = %40
  %45 = load ptr, ptr %10, align 8
  %46 = load ptr, ptr %16, align 8
  %47 = load i32, ptr %15, align 4
  %48 = call ptr @val_to_str(i32 noundef %47, ptr noundef @dcom_hresult_vals, ptr noundef @.str.128)
  %49 = call ptr (ptr, ptr, ptr, ptr, ...) @expert_add_info_format(ptr noundef %45, ptr noundef %46, ptr noundef @ei_dcom_hresult_expert, ptr noundef @.str.127, ptr noundef %48)
  br label %50

50:                                               ; preds = %44, %40
  %51 = load ptr, ptr %14, align 8
  %52 = icmp ne ptr %51, null
  br i1 %52, label %53, label %56

53:                                               ; preds = %50
  %54 = load i32, ptr %15, align 4
  %55 = load ptr, ptr %14, align 8
  store i32 %54, ptr %55, align 4
  br label %56

56:                                               ; preds = %53, %50
  %57 = load i32, ptr %9, align 4
  ret i32 %57
}

; Function Attrs: nounwind uwtable
define i32 @dissect_dcom_simple_resp(ptr noundef %0, i32 noundef %1, ptr noundef %2, ptr noundef %3, ptr noundef %4, ptr noundef %5) #0 {
  %7 = alloca ptr, align 8
  %8 = alloca i32, align 4
  %9 = alloca ptr, align 8
  %10 = alloca ptr, align 8
  %11 = alloca ptr, align 8
  %12 = alloca ptr, align 8
  %13 = alloca i32, align 4
  store ptr %0, ptr %7, align 8
  store i32 %1, ptr %8, align 4
  store ptr %2, ptr %9, align 8
  store ptr %3, ptr %10, align 8
  store ptr %4, ptr %11, align 8
  store ptr %5, ptr %12, align 8
  %14 = load ptr, ptr %7, align 8
  %15 = load i32, ptr %8, align 4
  %16 = load ptr, ptr %9, align 8
  %17 = load ptr, ptr %10, align 8
  %18 = load ptr, ptr %11, align 8
  %19 = load ptr, ptr %12, align 8
  %20 = call i32 @dissect_dcom_that(ptr noundef %14, i32 noundef %15, ptr noundef %16, ptr noundef %17, ptr noundef %18, ptr noundef %19)
  store i32 %20, ptr %8, align 4
  %21 = load ptr, ptr %7, align 8
  %22 = load i32, ptr %8, align 4
  %23 = load ptr, ptr %9, align 8
  %24 = load ptr, ptr %10, align 8
  %25 = load ptr, ptr %11, align 8
  %26 = load ptr, ptr %12, align 8
  %27 = call i32 @dissect_dcom_HRESULT(ptr noundef %21, i32 noundef %22, ptr noundef %23, ptr noundef %24, ptr noundef %25, ptr noundef %26, ptr noundef %13)
  store i32 %27, ptr %8, align 4
  %28 = load ptr, ptr %9, align 8
  %29 = getelementptr inbounds %struct._packet_info, ptr %28, i32 0, i32 1
  %30 = load ptr, ptr %29, align 8
  %31 = load i32, ptr %13, align 4
  %32 = call ptr @val_to_str(i32 noundef %31, ptr noundef @dcom_hresult_vals, ptr noundef @.str.124)
  call void (ptr, i32, ptr, ...) @col_append_fstr(ptr noundef %30, i32 noundef 25, ptr noundef @.str.123, ptr noundef %32)
  %33 = load i32, ptr %8, align 4
  ret i32 %33
}