; Function Attrs: nounwind uwtable
define i32 @dissect_dcom_simple_resp(ptr noundef %0, i32 noundef %1, ptr noundef %2, ptr noundef %3, ptr noundef %4, ptr noundef %5) local_unnamed_addr #1 {
  %7 = alloca i32, align 4
  %8 = tail call i32 @dissect_dcom_that(ptr noundef %0, i32 noundef %1, ptr noundef %2, ptr noundef %3, ptr noundef %4, ptr noundef %5)
  call void @llvm.lifetime.start.p0(i64 4, ptr nonnull %7)
  %9 = load i32, ptr @hf_dcom_hresult, align 4
  %10 = call i32 @dissect_ndr_uint32(ptr noundef %0, i32 noundef %8, ptr noundef %2, ptr noundef null, ptr noundef %4, ptr noundef %5, i32 noundef %9, ptr noundef nonnull %7) #11
  %.not.i = icmp eq ptr %3, null
  br i1 %.not.i, label %19, label %11

11:                                               ; preds = %6
  %12 = load i32, ptr @hf_dcom_hresult, align 4
  %13 = add i32 %10, -4
  %14 = load i8, ptr %5, align 1
  %15 = and i8 %14, 16
  %16 = zext nneg i8 %15 to i32
  %17 = shl nuw i32 %16, 27
  %18 = call ptr @proto_tree_add_item(ptr noundef nonnull %3, i32 noundef %12, ptr noundef %0, i32 noundef %13, i32 noundef 4, i32 noundef %17) #11
  br label %19

19:                                               ; preds = %11, %6
  %.0.i = phi ptr [ %18, %11 ], [ null, %6 ]
  %20 = load i32, ptr %7, align 4
  %.not17.i = icmp sgt i32 %20, -1
  br i1 %.not17.i, label %dissect_dcom_HRESULT.exit, label %21

21:                                               ; preds = %19
  %22 = call ptr @val_to_str(i32 noundef %20, ptr noundef nonnull @dcom_hresult_vals, ptr noundef nonnull @.str.128) #11
  %23 = call ptr (ptr, ptr, ptr, ptr, ...) @expert_add_info_format(ptr noundef %2, ptr noundef %.0.i, ptr noundef nonnull @ei_dcom_hresult_expert, ptr noundef nonnull @.str.127, ptr noundef %22) #11
  %.pre = load i32, ptr %7, align 4
  br label %dissect_dcom_HRESULT.exit

dissect_dcom_HRESULT.exit:                        ; preds = %19, %21
  %24 = phi i32 [ %20, %19 ], [ %.pre, %21 ]
  call void @llvm.lifetime.end.p0(i64 4, ptr nonnull %7)
  %25 = getelementptr inbounds nuw i8, ptr %2, i64 8
  %26 = load ptr, ptr %25, align 8
  %27 = call ptr @val_to_str(i32 noundef %24, ptr noundef nonnull @dcom_hresult_vals, ptr noundef nonnull @.str.124) #11
  call void (ptr, i32, ptr, ...) @col_append_fstr(ptr noundef %26, i32 noundef 25, ptr noundef nonnull @.str.123, ptr noundef %27) #11
  ret i32 %10
}